; Function Attrs: nounwind uwtable
define range(i32 0, 2) i32 @gvrender_begin_job(ptr noundef %0) local_unnamed_addr #0 {
  %2 = getelementptr inbounds nuw i8, ptr %0, i64 120
  %3 = load ptr, ptr %2, align 8, !tbaa !47
  %4 = tail call i32 @gvdevice_initialize(ptr noundef %0) #22
  %.not = icmp eq i32 %4, 0
  br i1 %.not, label %5, label %9

5:                                                ; preds = %1
  %.not8 = icmp eq ptr %3, null
  br i1 %.not8, label %9, label %6

6:                                                ; preds = %5
  %7 = load ptr, ptr %3, align 8, !tbaa !54
  %.not9 = icmp eq ptr %7, null
  br i1 %.not9, label %9, label %8

8:                                                ; preds = %6
  tail call void %7(ptr noundef nonnull %0) #22
  br label %9

9:                                                ; preds = %5, %8, %6, %1
  %.0 = phi i32 [ 1, %1 ], [ 0, %6 ], [ 0, %8 ], [ 0, %5 ]
  ret i32 %.0
}